; Function Attrs: mustprogress uwtable
define void @_ZN8QuantLib16HestonSLVProcess6updateEv(ptr noundef nonnull align 8 dereferenceable(216) %this) unnamed_addr #6 align 2 {
entry:
  %hestonProcess_.i = getelementptr inbounds nuw i8, ptr %this, i64 184
  %0 = load ptr, ptr %hestonProcess_.i, align 8, !tbaa !45
  %cmp.not.i.i = icmp eq ptr %0, null
  br i1 %cmp.not.i.i, label %_ZNK5boost10shared_ptrIN8QuantLib13HestonProcessEEptEv.exit.i, label %_ZN8QuantLib16HestonSLVProcess13setParametersEv.exit, !prof !53

_ZNK5boost10shared_ptrIN8QuantLib13HestonProcessEEptEv.exit.i: ; preds = %entry
  tail call void @_ZN5boost16assertion_failedEPKcS1_S1_l(ptr noundef nonnull @.str.9, ptr noundef nonnull @__PRETTY_FUNCTION__._ZNK5boost10shared_ptrIN8QuantLib13HestonProcessEEptEv, ptr noundef nonnull @.str.10, i64 noundef 784)
  %.pre.i.i = load ptr, ptr %hestonProcess_.i, align 8, !tbaa !45
  br label %_ZN8QuantLib16HestonSLVProcess13setParametersEv.exit

_ZN8QuantLib16HestonSLVProcess13setParametersEv.exit: ; preds = %entry, %_ZNK5boost10shared_ptrIN8QuantLib13HestonProcessEEptEv.exit.i
  %.pr20.i = phi ptr [ %.pre.i.i, %_ZNK5boost10shared_ptrIN8QuantLib13HestonProcessEEptEv.exit.i ], [ %0, %entry ]
  %.sink.in.i = getelementptr inbounds nuw i8, ptr %.pr20.i, i64 176
  %.sink.i = load double, ptr %.sink.in.i, align 8, !tbaa !54
  %1 = getelementptr inbounds nuw i8, ptr %this, i64 160
  store double %.sink.i, ptr %1, align 8
  %kappa_.i.i = getelementptr inbounds nuw i8, ptr %.pr20.i, i64 184
  %2 = load double, ptr %kappa_.i.i, align 8, !tbaa !61
  %kappa_.i = getelementptr inbounds nuw i8, ptr %this, i64 128
  store double %2, ptr %kappa_.i, align 8, !tbaa !62
  %theta_.i.i = getelementptr inbounds nuw i8, ptr %.pr20.i, i64 192
  %3 = load double, ptr %theta_.i.i, align 8, !tbaa !63
  %theta_.i = getelementptr inbounds nuw i8, ptr %this, i64 136
  store double %3, ptr %theta_.i, align 8, !tbaa !64
  %sigma_.i.i = getelementptr inbounds nuw i8, ptr %.pr20.i, i64 200
  %4 = load double, ptr %sigma_.i.i, align 8, !tbaa !65
  %sigma_.i = getelementptr inbounds nuw i8, ptr %this, i64 144
  store double %4, ptr %sigma_.i, align 8, !tbaa !66
  %rho_.i.i = getelementptr inbounds nuw i8, ptr %.pr20.i, i64 208
  %5 = load double, ptr %rho_.i.i, align 8, !tbaa !67
  %rho_.i = getelementptr inbounds nuw i8, ptr %this, i64 152
  store double %5, ptr %rho_.i, align 8, !tbaa !68
  %mixingFactor_.i = getelementptr inbounds nuw i8, ptr %this, i64 168
  %6 = load double, ptr %mixingFactor_.i, align 8, !tbaa !30
  %mul.i = fmul double %4, %6
  %mixedSigma_.i = getelementptr inbounds nuw i8, ptr %this, i64 176
  store double %mul.i, ptr %mixedSigma_.i, align 8, !tbaa !69
  tail call void @_ZN8QuantLib17StochasticProcess6updateEv(ptr noundef nonnull align 8 dereferenceable(128) %this)
  ret void
}